target datalayout = "e-m:e-p270:32:32-p271:32:32-p272:64:64-i64:64-i128:128-f80:128-n8:16:32:64-S128"
target triple = "x86_64-pc-linux-gnu"

%struct.OSQPSolver = type { ptr, ptr, ptr, ptr }
%struct.OSQPWorkspace_ = type { ptr, ptr, ptr, ptr, ptr, ptr, ptr, ptr, ptr, ptr, ptr, ptr, ptr, ptr, ptr, ptr, ptr, ptr, ptr, ptr, ptr, ptr, ptr, ptr, ptr, ptr, double, double, double, ptr, i64, i64, i64, i64, ptr }
%struct.OSQPData = type { i64, i64, ptr, ptr, ptr, ptr, ptr }
%struct.OSQPSettings = type { i64, i32, i64, i64, i64, i64, i64, i64, double, i64, double, double, i64, i64, double, i32, i64, i64, double, double, i64, double, double, double, double, i64, i64, double, double, i64 }
%struct.OSQPScaling = type { double, ptr, ptr, double, ptr, ptr }
%struct.linsys_solver = type { i32, ptr, ptr, ptr, ptr, ptr, ptr, ptr, ptr, i64 }

@__func__.osqp_warm_start = private unnamed_addr constant [16 x i8] c"osqp_warm_start\00", align 1

; Function Attrs: nounwind uwtable
define i64 @osqp_warm_start(ptr noundef %0, ptr noundef %1, ptr noundef %2) #0 {
  %4 = alloca i64, align 8
  %5 = alloca ptr, align 8
  %6 = alloca ptr, align 8
  %7 = alloca ptr, align 8
  %8 = alloca ptr, align 8
  store ptr %0, ptr %5, align 8
  store ptr %1, ptr %6, align 8
  store ptr %2, ptr %7, align 8
  %9 = load ptr, ptr %5, align 8
  %10 = icmp ne ptr %9, null
  br i1 %10, label %11, label %16

11:                                               ; preds = %3
  %12 = load ptr, ptr %5, align 8
  %13 = getelementptr inbounds %struct.OSQPSolver, ptr %12, i32 0, i32 3
  %14 = load ptr, ptr %13, align 8
  %15 = icmp ne ptr %14, null
  br i1 %15, label %18, label %16

16:                                               ; preds = %11, %3
  %17 = call i64 @_osqp_error(i32 noundef 6, ptr noundef @__func__.osqp_warm_start)
  store i64 %17, ptr %4, align 8
  br label %122

18:                                               ; preds = %11
  %19 = load ptr, ptr %5, align 8
  %20 = getelementptr inbounds %struct.OSQPSolver, ptr %19, i32 0, i32 3
  %21 = load ptr, ptr %20, align 8
  store ptr %21, ptr %8, align 8
  %22 = load ptr, ptr %5, align 8
  %23 = getelementptr inbounds %struct.OSQPSolver, ptr %22, i32 0, i32 0
  %24 = load ptr, ptr %23, align 8
  %25 = getelementptr inbounds %struct.OSQPSettings, ptr %24, i32 0, i32 5
  %26 = load i64, ptr %25, align 8
  %27 = icmp ne i64 %26, 0
  br i1 %27, label %33, label %28

28:                                               ; preds = %18
  %29 = load ptr, ptr %5, align 8
  %30 = getelementptr inbounds %struct.OSQPSolver, ptr %29, i32 0, i32 0
  %31 = load ptr, ptr %30, align 8
  %32 = getelementptr inbounds %struct.OSQPSettings, ptr %31, i32 0, i32 5
  store i64 1, ptr %32, align 8
  br label %33

33:                                               ; preds = %28, %18
  %34 = load ptr, ptr %6, align 8
  %35 = icmp ne ptr %34, null
  br i1 %35, label %36, label %41

36:                                               ; preds = %33
  %37 = load ptr, ptr %8, align 8
  %38 = getelementptr inbounds %struct.OSQPWorkspace_, ptr %37, i32 0, i32 6
  %39 = load ptr, ptr %38, align 8
  %40 = load ptr, ptr %6, align 8
  call void @OSQPVectorf_from_raw(ptr noundef %39, ptr noundef %40)
  br label %41

41:                                               ; preds = %36, %33
  %42 = load ptr, ptr %7, align 8
  %43 = icmp ne ptr %42, null
  br i1 %43, label %44, label %49

44:                                               ; preds = %41
  %45 = load ptr, ptr %8, align 8
  %46 = getelementptr inbounds %struct.OSQPWorkspace_, ptr %45, i32 0, i32 7
  %47 = load ptr, ptr %46, align 8
  %48 = load ptr, ptr %7, align 8
  call void @OSQPVectorf_from_raw(ptr noundef %47, ptr noundef %48)
  br label %49

49:                                               ; preds = %44, %41
  %50 = load ptr, ptr %5, align 8
  %51 = getelementptr inbounds %struct.OSQPSolver, ptr %50, i32 0, i32 0
  %52 = load ptr, ptr %51, align 8
  %53 = getelementptr inbounds %struct.OSQPSettings, ptr %52, i32 0, i32 6
  %54 = load i64, ptr %53, align 8
  %55 = icmp ne i64 %54, 0
  br i1 %55, label %56, label %95

56:                                               ; preds = %49
  %57 = load ptr, ptr %6, align 8
  %58 = icmp ne ptr %57, null
  br i1 %58, label %59, label %71

59:                                               ; preds = %56
  %60 = load ptr, ptr %8, align 8
  %61 = getelementptr inbounds %struct.OSQPWorkspace_, ptr %60, i32 0, i32 6
  %62 = load ptr, ptr %61, align 8
  %63 = load ptr, ptr %8, align 8
  %64 = getelementptr inbounds %struct.OSQPWorkspace_, ptr %63, i32 0, i32 6
  %65 = load ptr, ptr %64, align 8
  %66 = load ptr, ptr %8, align 8
  %67 = getelementptr inbounds %struct.OSQPWorkspace_, ptr %66, i32 0, i32 25
  %68 = load ptr, ptr %67, align 8
  %69 = getelementptr inbounds %struct.OSQPScaling, ptr %68, i32 0, i32 4
  %70 = load ptr, ptr %69, align 8
  call void @OSQPVectorf_ew_prod(ptr noundef %62, ptr noundef %65, ptr noundef %70)
  br label %71

71:                                               ; preds = %59, %56
  %72 = load ptr, ptr %7, align 8
  %73 = icmp ne ptr %72, null
  br i1 %73, label %74, label %94

74:                                               ; preds = %71
  %75 = load ptr, ptr %8, align 8
  %76 = getelementptr inbounds %struct.OSQPWorkspace_, ptr %75, i32 0, i32 7
  %77 = load ptr, ptr %76, align 8
  %78 = load ptr, ptr %8, align 8
  %79 = getelementptr inbounds %struct.OSQPWorkspace_, ptr %78, i32 0, i32 7
  %80 = load ptr, ptr %79, align 8
  %81 = load ptr, ptr %8, align 8
  %82 = getelementptr inbounds %struct.OSQPWorkspace_, ptr %81, i32 0, i32 25
  %83 = load ptr, ptr %82, align 8
  %84 = getelementptr inbounds %struct.OSQPScaling, ptr %83, i32 0, i32 5
  %85 = load ptr, ptr %84, align 8
  call void @OSQPVectorf_ew_prod(ptr noundef %77, ptr noundef %80, ptr noundef %85)
  %86 = load ptr, ptr %8, align 8
  %87 = getelementptr inbounds %struct.OSQPWorkspace_, ptr %86, i32 0, i32 7
  %88 = load ptr, ptr %87, align 8
  %89 = load ptr, ptr %8, align 8
  %90 = getelementptr inbounds %struct.OSQPWorkspace_, ptr %89, i32 0, i32 25
  %91 = load ptr, ptr %90, align 8
  %92 = getelementptr inbounds %struct.OSQPScaling, ptr %91, i32 0, i32 0
  %93 = load double, ptr %92, align 8
  call void @OSQPVectorf_mult_scalar(ptr noundef %88, double noundef %93)
  br label %94

94:                                               ; preds = %74, %71
  br label %95

95:                                               ; preds = %94, %49
  %96 = load ptr, ptr %6, align 8
  %97 = icmp ne ptr %96, null
  br i1 %97, label %98, label %110

98:                                               ; preds = %95
  %99 = load ptr, ptr %8, align 8
  %100 = getelementptr inbounds %struct.OSQPWorkspace_, ptr %99, i32 0, i32 0
  %101 = load ptr, ptr %100, align 8
  %102 = getelementptr inbounds %struct.OSQPData, ptr %101, i32 0, i32 3
  %103 = load ptr, ptr %102, align 8
  %104 = load ptr, ptr %8, align 8
  %105 = getelementptr inbounds %struct.OSQPWorkspace_, ptr %104, i32 0, i32 6
  %106 = load ptr, ptr %105, align 8
  %107 = load ptr, ptr %8, align 8
  %108 = getelementptr inbounds %struct.OSQPWorkspace_, ptr %107, i32 0, i32 8
  %109 = load ptr, ptr %108, align 8
  call void @OSQPMatrix_Axpy(ptr noundef %103, ptr noundef %106, ptr noundef %109, double noundef 1.000000e+00, double noundef 0.000000e+00)
  br label %110

110:                                              ; preds = %98, %95
  %111 = load ptr, ptr %8, align 8
  %112 = getelementptr inbounds %struct.OSQPWorkspace_, ptr %111, i32 0, i32 1
  %113 = load ptr, ptr %112, align 8
  %114 = getelementptr inbounds %struct.linsys_solver, ptr %113, i32 0, i32 4
  %115 = load ptr, ptr %114, align 8
  %116 = load ptr, ptr %8, align 8
  %117 = getelementptr inbounds %struct.OSQPWorkspace_, ptr %116, i32 0, i32 1
  %118 = load ptr, ptr %117, align 8
  %119 = load ptr, ptr %8, align 8
  %120 = getelementptr inbounds %struct.OSQPWorkspace_, ptr %119, i32 0, i32 6
  %121 = load ptr, ptr %120, align 8
  call void %115(ptr noundef %118, ptr noundef %121)
  store i64 0, ptr %4, align 8
  br label %122

122:                                              ; preds = %110, %16
  %123 = load i64, ptr %4, align 8
  ret i64 %123
}