; Function Attrs: nounwind uwtable
define i64 @osqp_warm_start(ptr noundef readonly %0, ptr noundef %1, ptr noundef %2) local_unnamed_addr #0 {
  %.not = icmp eq ptr %0, null
  br i1 %.not, label %7, label %4

4:                                                ; preds = %3
  %5 = getelementptr inbounds i8, ptr %0, i64 24
  %6 = load ptr, ptr %5, align 8
  %.not33 = icmp eq ptr %6, null
  br i1 %.not33, label %7, label %9

7:                                                ; preds = %4, %3
  %8 = tail call i64 @_osqp_error(i32 noundef 6, ptr noundef nonnull @__func__.osqp_warm_start) #15
  br label %61

9:                                                ; preds = %4
  %10 = load ptr, ptr %0, align 8
  %11 = getelementptr inbounds i8, ptr %10, i64 40
  %12 = load i64, ptr %11, align 8
  %.not34 = icmp eq i64 %12, 0
  br i1 %.not34, label %13, label %14

13:                                               ; preds = %9
  store i64 1, ptr %11, align 8
  br label %14

14:                                               ; preds = %13, %9
  %.not35 = icmp eq ptr %1, null
  br i1 %.not35, label %18, label %15

15:                                               ; preds = %14
  %16 = getelementptr inbounds i8, ptr %6, i64 48
  %17 = load ptr, ptr %16, align 8
  tail call void @OSQPVectorf_from_raw(ptr noundef %17, ptr noundef nonnull %1) #15
  br label %18

18:                                               ; preds = %15, %14
  %.not36 = icmp eq ptr %2, null
  br i1 %.not36, label %22, label %19

19:                                               ; preds = %18
  %20 = getelementptr inbounds i8, ptr %6, i64 56
  %21 = load ptr, ptr %20, align 8
  tail call void @OSQPVectorf_from_raw(ptr noundef %21, ptr noundef nonnull %2) #15
  br label %22

22:                                               ; preds = %19, %18
  %23 = load ptr, ptr %0, align 8
  %24 = getelementptr inbounds i8, ptr %23, i64 48
  %25 = load i64, ptr %24, align 8
  %.not37 = icmp eq i64 %25, 0
  br i1 %.not37, label %45, label %26

26:                                               ; preds = %22
  br i1 %.not35, label %34, label %27

27:                                               ; preds = %26
  %28 = getelementptr inbounds i8, ptr %6, i64 48
  %29 = load ptr, ptr %28, align 8
  %30 = getelementptr inbounds i8, ptr %6, i64 200
  %31 = load ptr, ptr %30, align 8
  %32 = getelementptr inbounds i8, ptr %31, i64 32
  %33 = load ptr, ptr %32, align 8
  tail call void @OSQPVectorf_ew_prod(ptr noundef %29, ptr noundef %29, ptr noundef %33) #15
  br label %34

34:                                               ; preds = %27, %26
  br i1 %.not36, label %45, label %35

35:                                               ; preds = %34
  %36 = getelementptr inbounds i8, ptr %6, i64 56
  %37 = load ptr, ptr %36, align 8
  %38 = getelementptr inbounds i8, ptr %6, i64 200
  %39 = load ptr, ptr %38, align 8
  %40 = getelementptr inbounds i8, ptr %39, i64 40
  %41 = load ptr, ptr %40, align 8
  tail call void @OSQPVectorf_ew_prod(ptr noundef %37, ptr noundef %37, ptr noundef %41) #15
  %42 = load ptr, ptr %36, align 8
  %43 = load ptr, ptr %38, align 8
  %44 = load double, ptr %43, align 8
  tail call void @OSQPVectorf_mult_scalar(ptr noundef %42, double noundef %44) #15
  br label %45

45:                                               ; preds = %34, %35, %22
  br i1 %.not35, label %54, label %46

46:                                               ; preds = %45
  %47 = load ptr, ptr %6, align 8
  %48 = getelementptr inbounds i8, ptr %47, i64 24
  %49 = load ptr, ptr %48, align 8
  %50 = getelementptr inbounds i8, ptr %6, i64 48
  %51 = load ptr, ptr %50, align 8
  %52 = getelementptr inbounds i8, ptr %6, i64 64
  %53 = load ptr, ptr %52, align 8
  tail call void @OSQPMatrix_Axpy(ptr noundef %49, ptr noundef %51, ptr noundef %53, double noundef 1.000000e+00, double noundef 0.000000e+00) #15
  br label %54

54:                                               ; preds = %46, %45
  %55 = getelementptr inbounds i8, ptr %6, i64 8
  %56 = load ptr, ptr %55, align 8
  %57 = getelementptr inbounds i8, ptr %56, i64 32
  %58 = load ptr, ptr %57, align 8
  %59 = getelementptr inbounds i8, ptr %6, i64 48
  %60 = load ptr, ptr %59, align 8
  tail call void %58(ptr noundef %56, ptr noundef %60) #15
  br label %61

61:                                               ; preds = %54, %7
  %.0 = phi i64 [ 0, %54 ], [ %8, %7 ]
  ret i64 %.0
}